target datalayout = "e-m:e-p270:32:32-p271:32:32-p272:64:64-i64:64-i128:128-f80:128-n8:16:32:64-S128"
target triple = "x86_64-pc-linux-gnu"

@.str = private unnamed_addr constant [31 x i8] c"../openssl/crypto/evp/e_aria.c\00", align 1
@__func__.aria_init_key = private unnamed_addr constant [14 x i8] c"aria_init_key\00", align 1

; Function Attrs: nounwind uwtable
define internal i32 @aria_init_key(ptr noundef %0, ptr noundef %1, ptr noundef %2, i32 noundef %3) #0 {
  %5 = alloca i32, align 4
  %6 = alloca ptr, align 8
  %7 = alloca ptr, align 8
  %8 = alloca ptr, align 8
  %9 = alloca i32, align 4
  %10 = alloca i32, align 4
  %11 = alloca i32, align 4
  %12 = alloca i32, align 4
  store ptr %0, ptr %6, align 8, !tbaa !3
  store ptr %1, ptr %7, align 8, !tbaa !8
  store ptr %2, ptr %8, align 8, !tbaa !8
  store i32 %3, ptr %9, align 4, !tbaa !10
  call void @llvm.lifetime.start.p0(i64 4, ptr %10) #4
  call void @llvm.lifetime.start.p0(i64 4, ptr %11) #4
  %13 = load ptr, ptr %6, align 8, !tbaa !3
  %14 = call ptr @EVP_CIPHER_CTX_get0_cipher(ptr noundef %13)
  %15 = call i32 @EVP_CIPHER_get_mode(ptr noundef %14)
  store i32 %15, ptr %11, align 4, !tbaa !10
  %16 = load i32, ptr %9, align 4, !tbaa !10
  %17 = icmp ne i32 %16, 0
  br i1 %17, label %24, label %18

18:                                               ; preds = %4
  %19 = load i32, ptr %11, align 4, !tbaa !10
  %20 = icmp ne i32 %19, 1
  br i1 %20, label %21, label %32

21:                                               ; preds = %18
  %22 = load i32, ptr %11, align 4, !tbaa !10
  %23 = icmp ne i32 %22, 2
  br i1 %23, label %24, label %32

24:                                               ; preds = %21, %4
  %25 = load ptr, ptr %7, align 8, !tbaa !8
  %26 = load ptr, ptr %6, align 8, !tbaa !3
  %27 = call i32 @EVP_CIPHER_CTX_get_key_length(ptr noundef %26)
  %28 = mul nsw i32 %27, 8
  %29 = load ptr, ptr %6, align 8, !tbaa !3
  %30 = call ptr @EVP_CIPHER_CTX_get_cipher_data(ptr noundef %29)
  %31 = call i32 @ossl_aria_set_encrypt_key(ptr noundef %25, i32 noundef %28, ptr noundef %30)
  store i32 %31, ptr %10, align 4, !tbaa !10
  br label %40

32:                                               ; preds = %21, %18
  %33 = load ptr, ptr %7, align 8, !tbaa !8
  %34 = load ptr, ptr %6, align 8, !tbaa !3
  %35 = call i32 @EVP_CIPHER_CTX_get_key_length(ptr noundef %34)
  %36 = mul nsw i32 %35, 8
  %37 = load ptr, ptr %6, align 8, !tbaa !3
  %38 = call ptr @EVP_CIPHER_CTX_get_cipher_data(ptr noundef %37)
  %39 = call i32 @ossl_aria_set_decrypt_key(ptr noundef %33, i32 noundef %36, ptr noundef %38)
  store i32 %39, ptr %10, align 4, !tbaa !10
  br label %40

40:                                               ; preds = %32, %24
  %41 = load i32, ptr %10, align 4, !tbaa !10
  %42 = icmp slt i32 %41, 0
  br i1 %42, label %43, label %44

43:                                               ; preds = %40
  call void @ERR_new()
  call void @ERR_set_debug(ptr noundef @.str, i32 noundef 76, ptr noundef @__func__.aria_init_key)
  call void (i32, i32, ptr, ...) @ERR_set_error(i32 noundef 6, i32 noundef 176, ptr noundef null)
  store i32 0, ptr %5, align 4
  store i32 1, ptr %12, align 4
  br label %45

44:                                               ; preds = %40
  store i32 1, ptr %5, align 4
  store i32 1, ptr %12, align 4
  br label %45

45:                                               ; preds = %44, %43
  call void @llvm.lifetime.end.p0(i64 4, ptr %11) #4
  call void @llvm.lifetime.end.p0(i64 4, ptr %10) #4
  %46 = load i32, ptr %5, align 4
  ret i32 %46
}