; Function Attrs: nounwind uwtable
define internal range(i32 0, 2) i32 @aria_init_key(ptr noundef %0, ptr noundef %1, ptr readnone captures(none) %2, i32 noundef %3) #1 {
  %5 = tail call ptr @EVP_CIPHER_CTX_get0_cipher(ptr noundef %0) #6
  %6 = tail call i32 @EVP_CIPHER_get_mode(ptr noundef %5) #6
  %.not = icmp ne i32 %3, 0
  %7 = add i32 %6, -3
  %or.cond = icmp ult i32 %7, -2
  %or.cond13 = select i1 %.not, i1 true, i1 %or.cond
  %8 = tail call i32 @EVP_CIPHER_CTX_get_key_length(ptr noundef %0) #6
  %9 = shl nsw i32 %8, 3
  %10 = tail call ptr @EVP_CIPHER_CTX_get_cipher_data(ptr noundef %0) #6
  br i1 %or.cond13, label %11, label %13

11:                                               ; preds = %4
  %12 = tail call i32 @ossl_aria_set_encrypt_key(ptr noundef %1, i32 noundef %9, ptr noundef %10) #6
  br label %15

13:                                               ; preds = %4
  %14 = tail call i32 @ossl_aria_set_decrypt_key(ptr noundef %1, i32 noundef %9, ptr noundef %10) #6
  br label %15

15:                                               ; preds = %13, %11
  %.012 = phi i32 [ %12, %11 ], [ %14, %13 ]
  %16 = icmp slt i32 %.012, 0
  br i1 %16, label %17, label %18

17:                                               ; preds = %15
  tail call void @ERR_new() #6
  tail call void @ERR_set_debug(ptr noundef nonnull @.str, i32 noundef 76, ptr noundef nonnull @__func__.aria_init_key) #6
  tail call void (i32, i32, ptr, ...) @ERR_set_error(i32 noundef 6, i32 noundef 176, ptr noundef null) #6
  br label %18

18:                                               ; preds = %15, %17
  %.0 = phi i32 [ 0, %17 ], [ 1, %15 ]
  ret i32 %.0
}